; Function Attrs: mustprogress uwtable
define void @_ZN9grpc_core8Executor7InitAllEv() local_unnamed_addr #3 align 2 personality ptr @__gxx_personality_v0 {
entry:
  %0 = load atomic i8, ptr getelementptr inbounds (%"class.grpc_core::TraceFlag", ptr @_ZN9grpc_core14executor_traceE, i64 0, i32 2, i32 0, i32 0) monotonic, align 8
  %1 = and i8 %0, 1
  %tobool.i.i.i.not = icmp eq i8 %1, 0
  br i1 %tobool.i.i.i.not, label %do.end, label %if.then

if.then:                                          ; preds = %entry
  tail call void (ptr, i32, i32, ptr, ...) @gpr_log(ptr noundef nonnull @.str.2, i32 noundef 370, i32 noundef 1, ptr noundef nonnull @.str.17)
  br label %do.end

do.end:                                           ; preds = %entry, %if.then
  %2 = load ptr, ptr @_ZN9grpc_core12_GLOBAL__N_19executorsE, align 16
  %cmp.not = icmp eq ptr %2, null
  br i1 %cmp.not, label %if.end7, label %do.body2

do.body2:                                         ; preds = %do.end
  %3 = load ptr, ptr getelementptr inbounds ([2 x ptr], ptr @_ZN9grpc_core12_GLOBAL__N_19executorsE, i64 0, i64 1), align 8
  %cmp3.not = icmp eq ptr %3, null
  br i1 %cmp3.not, label %if.then4, label %do.end16

if.then4:                                         ; preds = %do.body2
  tail call void @gpr_assertion_failed(ptr noundef nonnull @.str.2, i32 noundef 375, ptr noundef nonnull @.str.18) #20
  unreachable

if.end7:                                          ; preds = %do.end
  %call8 = tail call noalias noundef nonnull dereferenceable(40) ptr @_Znwm(i64 noundef 40) #23
  invoke void @_ZN9grpc_core8ExecutorC1EPKc(ptr noundef nonnull align 8 dereferenceable(40) %call8, ptr noundef nonnull @.str.19)
          to label %invoke.cont unwind label %lpad

invoke.cont:                                      ; preds = %if.end7
  store ptr %call8, ptr @_ZN9grpc_core12_GLOBAL__N_19executorsE, align 16
  %call9 = tail call noalias noundef nonnull dereferenceable(40) ptr @_Znwm(i64 noundef 40) #23
  invoke void @_ZN9grpc_core8ExecutorC1EPKc(ptr noundef nonnull align 8 dereferenceable(40) %call9, ptr noundef nonnull @.str.20)
          to label %invoke.cont11 unwind label %lpad10

invoke.cont11:                                    ; preds = %invoke.cont
  store ptr %call9, ptr getelementptr inbounds ([2 x ptr], ptr @_ZN9grpc_core12_GLOBAL__N_19executorsE, i64 0, i64 1), align 8
  %4 = load ptr, ptr @_ZN9grpc_core12_GLOBAL__N_19executorsE, align 16
  tail call void @_ZN9grpc_core8Executor12SetThreadingEb(ptr noundef nonnull align 8 dereferenceable(40) %4, i1 noundef zeroext true)
  %5 = load ptr, ptr getelementptr inbounds ([2 x ptr], ptr @_ZN9grpc_core12_GLOBAL__N_19executorsE, i64 0, i64 1), align 8
  tail call void @_ZN9grpc_core8Executor12SetThreadingEb(ptr noundef nonnull align 8 dereferenceable(40) %5, i1 noundef zeroext true)
  %6 = load atomic i8, ptr getelementptr inbounds (%"class.grpc_core::TraceFlag", ptr @_ZN9grpc_core14executor_traceE, i64 0, i32 2, i32 0, i32 0) monotonic, align 8
  %7 = and i8 %6, 1
  %tobool.i.i.i2.not = icmp eq i8 %7, 0
  br i1 %tobool.i.i.i2.not, label %do.end16, label %if.then14

if.then14:                                        ; preds = %invoke.cont11
  tail call void (ptr, i32, i32, ptr, ...) @gpr_log(ptr noundef nonnull @.str.2, i32 noundef 387, i32 noundef 1, ptr noundef nonnull @.str.21)
  br label %do.end16

lpad:                                             ; preds = %if.end7
  %8 = landingpad { ptr, i32 }
          cleanup
  br label %eh.resume

lpad10:                                           ; preds = %invoke.cont
  %9 = landingpad { ptr, i32 }
          cleanup
  br label %eh.resume

do.end16:                                         ; preds = %invoke.cont11, %if.then14, %do.body2
  ret void

eh.resume:                                        ; preds = %lpad10, %lpad
  %call9.sink = phi ptr [ %call9, %lpad10 ], [ %call8, %lpad ]
  %.pn = phi { ptr, i32 } [ %9, %lpad10 ], [ %8, %lpad ]
  tail call void @_ZdlPv(ptr noundef nonnull %call9.sink) #24
  resume { ptr, i32 } %.pn
}